; Function Attrs: mustprogress uwtable
define hidden void @_ZN5arith6solver31add_def_constraint_and_equalityEjN2lp16lconstraint_kindERK8rational(ptr noundef nonnull align 8 dereferenceable(1144) %this, i32 noundef %vi, i32 noundef %kind, ptr noundef nonnull align 8 dereferenceable(32) %bound) local_unnamed_addr #3 align 2 {
entry:
  %vi_equal = alloca i32, align 4
  %m_solver.i = getelementptr inbounds i8, ptr %this, i64 592
  %0 = load ptr, ptr %m_solver.i, align 8
  %call2 = call noundef i32 @_ZN2lp10lar_solver28add_var_bound_check_on_equalEjNS_16lconstraint_kindERK8rationalRj(ptr noundef nonnull align 8 dereferenceable(1888) %0, i32 noundef %vi, i32 noundef %kind, ptr noundef nonnull align 8 dereferenceable(32) %bound, ptr noundef nonnull align 4 dereferenceable(4) %vi_equal)
  call void @_ZN5arith6solver18add_def_constraintEj(ptr noundef nonnull align 8 dereferenceable(1144) %this, i32 noundef %call2)
  %1 = load i32, ptr %vi_equal, align 4
  %cmp.not = icmp eq i32 %1, -1
  br i1 %cmp.not, label %if.end, label %if.then

if.then:                                          ; preds = %entry
  call void @_ZN5arith6solver29report_equality_of_fixed_varsEjj(ptr noundef nonnull align 8 dereferenceable(1144) %this, i32 noundef %vi, i32 noundef %1)
  br label %if.end

if.end:                                           ; preds = %if.then, %entry
  %m_new_eq = getelementptr inbounds i8, ptr %this, i64 152
  store i8 1, ptr %m_new_eq, align 8
  ret void
}